target datalayout = "e-m:e-p270:32:32-p271:32:32-p272:64:64-i64:64-i128:128-f80:128-n8:16:32:64-S128"
target triple = "x86_64-pc-linux-gnu"

@.str = private unnamed_addr constant [40 x i8] c"could not attach to dynamic shared area\00", align 1
@.str.1 = private unnamed_addr constant [6 x i8] c"dsa.c\00", align 1
@__func__.dsa_attach = private unnamed_addr constant [11 x i8] c"dsa_attach\00", align 1

; Function Attrs: inlinehint nounwind uwtable
define internal i64 @PointerGetDatum(ptr noundef %0) #3 {
  %2 = alloca ptr, align 8
  store ptr %0, ptr %2, align 8
  %3 = load ptr, ptr %2, align 8
  %4 = ptrtoint ptr %3 to i64
  ret i64 %4
}

; Function Attrs: nounwind uwtable
define dso_local ptr @dsa_attach(i32 noundef %0) #0 {
  %2 = alloca i32, align 4
  %3 = alloca ptr, align 8
  %4 = alloca ptr, align 8
  store i32 %0, ptr %2, align 4
  call void @llvm.lifetime.start.p0(i64 8, ptr %3) #8
  call void @llvm.lifetime.start.p0(i64 8, ptr %4) #8
  %5 = load i32, ptr %2, align 4
  %6 = call ptr @dsm_attach(i32 noundef %5)
  store ptr %6, ptr %3, align 8
  %7 = load ptr, ptr %3, align 8
  %8 = icmp eq ptr %7, null
  br i1 %8, label %9, label %21

9:                                                ; preds = %1
  br label %10

10:                                               ; preds = %9
  br i1 true, label %11, label %13

11:                                               ; preds = %10
  %12 = call zeroext i1 @errstart_cold(i32 noundef 21, ptr noundef null) #9
  br i1 %12, label %15, label %18

13:                                               ; preds = %10
  %14 = call zeroext i1 @errstart(i32 noundef 21, ptr noundef null)
  br i1 %14, label %15, label %18

15:                                               ; preds = %13, %11
  %16 = call i32 @errcode(i32 noundef 325)
  %17 = call i32 (ptr, ...) @errmsg(ptr noundef @.str)
  call void @errfinish(ptr noundef @.str.1, i32 noundef 523, ptr noundef @__func__.dsa_attach)
  br label %18

18:                                               ; preds = %15, %13, %11
  unreachable

19:                                               ; No predecessors!
  br label %20

20:                                               ; preds = %19
  br label %21

21:                                               ; preds = %20, %1
  %22 = load ptr, ptr %3, align 8
  %23 = call ptr @dsm_segment_address(ptr noundef %22)
  %24 = load ptr, ptr %3, align 8
  %25 = load i32, ptr %2, align 4
  %26 = call ptr @attach_internal(ptr noundef %23, ptr noundef %24, i32 noundef %25)
  store ptr %26, ptr %4, align 8
  %27 = load ptr, ptr %3, align 8
  %28 = load ptr, ptr %3, align 8
  %29 = call ptr @dsm_segment_address(ptr noundef %28)
  %30 = call i64 @PointerGetDatum(ptr noundef %29)
  call void @on_dsm_detach(ptr noundef %27, ptr noundef @dsa_on_dsm_detach_release_in_place, i64 noundef %30)
  %31 = load ptr, ptr %4, align 8
  call void @llvm.lifetime.end.p0(i64 8, ptr %4) #8
  call void @llvm.lifetime.end.p0(i64 8, ptr %3) #8
  ret ptr %31
}