; Function Attrs: nounwind uwtable
define dso_local noundef ptr @dsa_attach(i32 noundef %0) local_unnamed_addr #0 {
  %2 = tail call ptr @dsm_attach(i32 noundef %0) #11
  %3 = icmp eq ptr %2, null
  br i1 %3, label %4, label %8

4:                                                ; preds = %1
  %5 = tail call zeroext i1 @errstart_cold(i32 noundef 21, ptr noundef null) #12
  tail call void @llvm.assume(i1 %5)
  %6 = tail call i32 @errcode(i32 noundef 325) #11
  %7 = tail call i32 (ptr, ...) @errmsg(ptr noundef nonnull @.str) #11
  tail call void @errfinish(ptr noundef nonnull @.str.1, i32 noundef 523, ptr noundef nonnull @__func__.dsa_attach) #11
  unreachable

8:                                                ; preds = %1
  %9 = tail call ptr @dsm_segment_address(ptr noundef nonnull %2) #11
  %10 = tail call fastcc ptr @attach_internal(ptr noundef %9, ptr noundef nonnull %2)
  %11 = tail call ptr @dsm_segment_address(ptr noundef nonnull %2) #11
  %12 = ptrtoint ptr %11 to i64
  tail call void @on_dsm_detach(ptr noundef nonnull %2, ptr noundef nonnull @dsa_on_dsm_detach_release_in_place, i64 noundef %12) #11
  ret ptr %10
}